; ModuleID = '3/2899.c'
source_filename = "3/2899.c"
target datalayout = "e-m:e-p270:32:32-p271:32:32-p272:64:64-i64:64-f80:128-n8:16:32:64-S128"
target triple = "x86_64-pc-linux-gnu"

@.str = private unnamed_addr constant [7 x i8] c"%d %d\0A\00", align 1
@.str.1 = private unnamed_addr constant [3 x i8] c"%d\00", align 1
@.str.2 = private unnamed_addr constant [4 x i8] c"yes\00", align 1
@.str.3 = private unnamed_addr constant [3 x i8] c"no\00", align 1

; Function Attrs: noinline nounwind uwtable
define dso_local i32 @main() #0 {
  %1 = alloca i32, align 4
  %2 = alloca i32, align 4
  %3 = alloca i32, align 4
  %4 = alloca i8*, align 8
  %5 = alloca i64, align 8
  %6 = alloca i64, align 8
  %7 = alloca i32, align 4
  %8 = alloca i32, align 4
  %9 = alloca i32, align 4
  %10 = alloca i32, align 4
  store i32 0, i32* %1, align 4
  %11 = call i32 (i8*, ...) @__isoc99_scanf(i8* getelementptr inbounds ([7 x i8], [7 x i8]* @.str, i64 0, i64 0), i32* %2, i32* %3)
  %12 = load i32, i32* %2, align 4
  %13 = zext i32 %12 to i64
  %14 = call i8* @llvm.stacksave()
  store i8* %14, i8** %4, align 8
  %15 = alloca i32, i64 %13, align 16
  store i64 %13, i64* %5, align 8
  %16 = load i32, i32* %2, align 4
  %17 = zext i32 %16 to i64
  %18 = alloca i32, i64 %17, align 16
  store i64 %17, i64* %6, align 8
  store i32 1, i32* %7, align 4
  br label %19

19:                                               ; preds = %38, %0
  %20 = load i32, i32* %7, align 4
  %21 = load i32, i32* %2, align 4
  %22 = icmp sle i32 %20, %21
  br i1 %22, label %23, label %41

23:                                               ; preds = %19
  %24 = load i32, i32* %7, align 4
  %25 = sub nsw i32 %24, 1
  %26 = sext i32 %25 to i64
  %27 = getelementptr inbounds i32, i32* %15, i64 %26
  %28 = call i32 (i8*, ...) @__isoc99_scanf(i8* getelementptr inbounds ([3 x i8], [3 x i8]* @.str.1, i64 0, i64 0), i32* %27)
  %29 = load i32, i32* %7, align 4
  %30 = sub nsw i32 %29, 1
  %31 = sext i32 %30 to i64
  %32 = getelementptr inbounds i32, i32* %15, i64 %31
  %33 = load i32, i32* %32, align 4
  %34 = load i32, i32* %7, align 4
  %35 = sub nsw i32 %34, 1
  %36 = sext i32 %35 to i64
  %37 = getelementptr inbounds i32, i32* %18, i64 %36
  store i32 %33, i32* %37, align 4
  br label %38

38:                                               ; preds = %23
  %39 = load i32, i32* %7, align 4
  %40 = add nsw i32 %39, 1
  store i32 %40, i32* %7, align 4
  br label %19

41:                                               ; preds = %19
  store i32 0, i32* %8, align 4
  store i32 1, i32* %9, align 4
  br label %42

42:                                               ; preds = %73, %41
  %43 = load i32, i32* %9, align 4
  %44 = load i32, i32* %2, align 4
  %45 = icmp sle i32 %43, %44
  br i1 %45, label %46, label %76

46:                                               ; preds = %42
  %47 = load i32, i32* %9, align 4
  %48 = add nsw i32 %47, 1
  store i32 %48, i32* %10, align 4
  br label %49

49:                                               ; preds = %69, %46
  %50 = load i32, i32* %10, align 4
  %51 = load i32, i32* %2, align 4
  %52 = icmp sle i32 %50, %51
  br i1 %52, label %53, label %72

53:                                               ; preds = %49
  %54 = load i32, i32* %9, align 4
  %55 = sub nsw i32 %54, 1
  %56 = sext i32 %55 to i64
  %57 = getelementptr inbounds i32, i32* %15, i64 %56
  %58 = load i32, i32* %57, align 4
  %59 = load i32, i32* %10, align 4
  %60 = sub nsw i32 %59, 1
  %61 = sext i32 %60 to i64
  %62 = getelementptr inbounds i32, i32* %18, i64 %61
  %63 = load i32, i32* %62, align 4
  %64 = add nsw i32 %58, %63
  %65 = load i32, i32* %3, align 4
  %66 = icmp eq i32 %64, %65
  br i1 %66, label %67, label %68

67:                                               ; preds = %53
  store i32 1, i32* %8, align 4
  br label %68

68:                                               ; preds = %67, %53
  br label %69

69:                                               ; preds = %68
  %70 = load i32, i32* %10, align 4
  %71 = add nsw i32 %70, 1
  store i32 %71, i32* %10, align 4
  store i32 %70, i32* %10, align 4
  br label %49

72:                                               ; preds = %49
  br label %73

73:                                               ; preds = %72
  %74 = load i32, i32* %9, align 4
  %75 = add nsw i32 %74, 1
  store i32 %75, i32* %9, align 4
  br label %42

76:                                               ; preds = %42
  %77 = load i32, i32* %8, align 4
  %78 = icmp eq i32 %77, 1
  br i1 %78, label %79, label %81

79:                                               ; preds = %76
  %80 = call i32 (i8*, ...) @printf(i8* getelementptr inbounds ([4 x i8], [4 x i8]* @.str.2, i64 0, i64 0))
  br label %83

81:                                               ; preds = %76
  %82 = call i32 (i8*, ...) @printf(i8* getelementptr inbounds ([3 x i8], [3 x i8]* @.str.3, i64 0, i64 0))
  br label %83

83:                                               ; preds = %81, %79
  store i32 0, i32* %1, align 4
  %84 = load i8*, i8** %4, align 8
  call void @llvm.stackrestore(i8* %84)
  %85 = load i32, i32* %1, align 4
  ret i32 %85
}

declare dso_local i32 @__isoc99_scanf(i8*, ...) #1

; Function Attrs: nounwind
declare i8* @llvm.stacksave() #2

declare dso_local i32 @printf(i8*, ...) #1

; Function Attrs: nounwind
declare void @llvm.stackrestore(i8*) #2


!llvm.module.flags = !{!0}
!llvm.ident = !{!1}

!0 = !{i32 1, !"wchar_size", i32 4}
!1 = !{!"clang version 10.0.0-4ubuntu1 "}
